target datalayout = "e-m:e-p270:32:32-p271:32:32-p272:64:64-i64:64-i128:128-f80:128-n8:16:32:64-S128"
target triple = "x86_64-pc-linux-gnu"

%struct._typeobject = type { %struct.PyVarObject, ptr, i64, i64, ptr, i64, ptr, ptr, ptr, ptr, ptr, ptr, ptr, ptr, ptr, ptr, ptr, ptr, ptr, i64, ptr, ptr, ptr, ptr, i64, ptr, ptr, ptr, ptr, ptr, ptr, ptr, ptr, ptr, i64, ptr, ptr, ptr, ptr, ptr, ptr, ptr, ptr, ptr, ptr, ptr, i32, ptr, ptr, i8, i16 }
%struct.PyVarObject = type { %struct._object, i64 }
%struct._object = type { %union.anon, ptr }
%union.anon = type { i64 }
%struct.PyTupleObject = type { %struct.PyVarObject, [1 x ptr] }

; Function Attrs: inlinehint nounwind uwtable
define internal i32 @PyType_Check(ptr noundef %0) #2 {
  %2 = alloca ptr, align 8
  store ptr %0, ptr %2, align 8, !tbaa !9
  %3 = load ptr, ptr %2, align 8, !tbaa !9
  %4 = call ptr @_Py_TYPE(ptr noundef %3)
  %5 = call i32 @PyType_HasFeature(ptr noundef %4, i64 noundef 2147483648)
  ret i32 %5
}

; Function Attrs: inlinehint nounwind uwtable
define internal i32 @PyType_HasFeature(ptr noundef %0, i64 noundef %1) #2 {
  %3 = alloca ptr, align 8
  %4 = alloca i64, align 8
  %5 = alloca i64, align 8
  store ptr %0, ptr %3, align 8, !tbaa !37
  store i64 %1, ptr %4, align 8, !tbaa !47
  call void @llvm.lifetime.start.p0(i64 8, ptr %5) #13
  %6 = load ptr, ptr %3, align 8, !tbaa !37
  %7 = getelementptr inbounds nuw %struct._typeobject, ptr %6, i32 0, i32 19
  %8 = load i64, ptr %7, align 8, !tbaa !48
  store i64 %8, ptr %5, align 8, !tbaa !47
  %9 = load i64, ptr %5, align 8, !tbaa !47
  %10 = load i64, ptr %4, align 8, !tbaa !47
  %11 = and i64 %9, %10
  %12 = icmp ne i64 %11, 0
  %13 = zext i1 %12 to i32
  call void @llvm.lifetime.end.p0(i64 8, ptr %5) #13
  ret i32 %13
}

; Function Attrs: inlinehint nounwind uwtable
define internal ptr @_Py_TYPE(ptr noundef %0) #2 {
  %2 = alloca ptr, align 8
  store ptr %0, ptr %2, align 8, !tbaa !9
  %3 = load ptr, ptr %2, align 8, !tbaa !9
  %4 = getelementptr inbounds nuw %struct._object, ptr %3, i32 0, i32 1
  %5 = load ptr, ptr %4, align 8, !tbaa !26
  ret ptr %5
}

; Function Attrs: nounwind uwtable
define dso_local i32 @PyErr_GivenExceptionMatches(ptr noundef %0, ptr noundef %1) #0 {
  %3 = alloca i32, align 4
  %4 = alloca ptr, align 8
  %5 = alloca ptr, align 8
  %6 = alloca i64, align 8
  %7 = alloca i64, align 8
  %8 = alloca i32, align 4
  store ptr %0, ptr %4, align 8, !tbaa !9
  store ptr %1, ptr %5, align 8, !tbaa !9
  %9 = load ptr, ptr %4, align 8, !tbaa !9
  %10 = icmp eq ptr %9, null
  br i1 %10, label %14, label %11

11:                                               ; preds = %2
  %12 = load ptr, ptr %5, align 8, !tbaa !9
  %13 = icmp eq ptr %12, null
  br i1 %13, label %14, label %15

14:                                               ; preds = %11, %2
  store i32 0, ptr %3, align 4
  br label %76

15:                                               ; preds = %11
  %16 = load ptr, ptr %5, align 8, !tbaa !9
  %17 = call ptr @_Py_TYPE(ptr noundef %16)
  %18 = call i32 @PyType_HasFeature(ptr noundef %17, i64 noundef 67108864)
  %19 = icmp ne i32 %18, 0
  br i1 %19, label %20, label %43

20:                                               ; preds = %15
  call void @llvm.lifetime.start.p0(i64 8, ptr %6) #13
  call void @llvm.lifetime.start.p0(i64 8, ptr %7) #13
  %21 = load ptr, ptr %5, align 8, !tbaa !9
  %22 = call i64 @PyTuple_Size(ptr noundef %21)
  store i64 %22, ptr %7, align 8, !tbaa !47
  store i64 0, ptr %6, align 8, !tbaa !47
  br label %23

23:                                               ; preds = %38, %20
  %24 = load i64, ptr %6, align 8, !tbaa !47
  %25 = load i64, ptr %7, align 8, !tbaa !47
  %26 = icmp slt i64 %24, %25
  br i1 %26, label %27, label %41

27:                                               ; preds = %23
  %28 = load ptr, ptr %4, align 8, !tbaa !9
  %29 = load ptr, ptr %5, align 8, !tbaa !9
  %30 = getelementptr inbounds nuw %struct.PyTupleObject, ptr %29, i32 0, i32 1
  %31 = load i64, ptr %6, align 8, !tbaa !47
  %32 = getelementptr [1 x ptr], ptr %30, i64 0, i64 %31
  %33 = load ptr, ptr %32, align 8, !tbaa !9
  %34 = call i32 @PyErr_GivenExceptionMatches(ptr noundef %28, ptr noundef %33)
  %35 = icmp ne i32 %34, 0
  br i1 %35, label %36, label %37

36:                                               ; preds = %27
  store i32 1, ptr %3, align 4
  store i32 1, ptr %8, align 4
  br label %42

37:                                               ; preds = %27
  br label %38

38:                                               ; preds = %37
  %39 = load i64, ptr %6, align 8, !tbaa !47
  %40 = add i64 %39, 1
  store i64 %40, ptr %6, align 8, !tbaa !47
  br label %23, !llvm.loop !49

41:                                               ; preds = %23
  store i32 0, ptr %3, align 4
  store i32 1, ptr %8, align 4
  br label %42

42:                                               ; preds = %41, %36
  call void @llvm.lifetime.end.p0(i64 8, ptr %7) #13
  call void @llvm.lifetime.end.p0(i64 8, ptr %6) #13
  br label %76

43:                                               ; preds = %15
  %44 = load ptr, ptr %4, align 8, !tbaa !9
  %45 = call ptr @_Py_TYPE(ptr noundef %44)
  %46 = call i32 @PyType_HasFeature(ptr noundef %45, i64 noundef 1073741824)
  %47 = icmp ne i32 %46, 0
  br i1 %47, label %48, label %51

48:                                               ; preds = %43
  %49 = load ptr, ptr %4, align 8, !tbaa !9
  %50 = call ptr @_Py_TYPE(ptr noundef %49)
  store ptr %50, ptr %4, align 8, !tbaa !9
  br label %51

51:                                               ; preds = %48, %43
  %52 = load ptr, ptr %4, align 8, !tbaa !9
  %53 = call i32 @PyType_Check(ptr noundef %52)
  %54 = icmp ne i32 %53, 0
  br i1 %54, label %55, label %71

55:                                               ; preds = %51
  %56 = load ptr, ptr %4, align 8, !tbaa !9
  %57 = call i32 @PyType_HasFeature(ptr noundef %56, i64 noundef 1073741824)
  %58 = icmp ne i32 %57, 0
  br i1 %58, label %59, label %71

59:                                               ; preds = %55
  %60 = load ptr, ptr %5, align 8, !tbaa !9
  %61 = call i32 @PyType_Check(ptr noundef %60)
  %62 = icmp ne i32 %61, 0
  br i1 %62, label %63, label %71

63:                                               ; preds = %59
  %64 = load ptr, ptr %5, align 8, !tbaa !9
  %65 = call i32 @PyType_HasFeature(ptr noundef %64, i64 noundef 1073741824)
  %66 = icmp ne i32 %65, 0
  br i1 %66, label %67, label %71

67:                                               ; preds = %63
  %68 = load ptr, ptr %4, align 8, !tbaa !9
  %69 = load ptr, ptr %5, align 8, !tbaa !9
  %70 = call i32 @PyType_IsSubtype(ptr noundef %68, ptr noundef %69)
  store i32 %70, ptr %3, align 4
  br label %76

71:                                               ; preds = %63, %59, %55, %51
  %72 = load ptr, ptr %4, align 8, !tbaa !9
  %73 = load ptr, ptr %5, align 8, !tbaa !9
  %74 = icmp eq ptr %72, %73
  %75 = zext i1 %74 to i32
  store i32 %75, ptr %3, align 4
  br label %76

76:                                               ; preds = %71, %67, %42, %14
  %77 = load i32, ptr %3, align 4
  ret i32 %77
}