; Function Attrs: nounwind uwtable
define dso_local i32 @PyErr_GivenExceptionMatches(ptr noundef %0, ptr noundef %1) local_unnamed_addr #0 {
  %3 = icmp eq ptr %0, null
  %4 = icmp eq ptr %1, null
  %or.cond = or i1 %3, %4
  br i1 %or.cond, label %.loopexit, label %5

5:                                                ; preds = %2
  %6 = getelementptr i8, ptr %1, i64 8
  %.val32 = load ptr, ptr %6, align 8, !tbaa !21
  %7 = getelementptr i8, ptr %.val32, i64 168
  %.val35 = load i64, ptr %7, align 8, !tbaa !28
  %8 = and i64 %.val35, 67108864
  %.not = icmp eq i64 %8, 0
  br i1 %.not, label %18, label %9

9:                                                ; preds = %5
  %10 = tail call i64 @PyTuple_Size(ptr noundef nonnull %1) #17
  %11 = getelementptr inbounds nuw i8, ptr %1, i64 24
  %12 = icmp sgt i64 %10, 0
  br i1 %12, label %.lr.ph, label %.loopexit

13:                                               ; preds = %.lr.ph
  %14 = add nuw nsw i64 %.02141, 1
  %exitcond.not = icmp eq i64 %14, %10
  br i1 %exitcond.not, label %.loopexit, label %.lr.ph, !llvm.loop !44

.lr.ph:                                           ; preds = %9, %13
  %.02141 = phi i64 [ %14, %13 ], [ 0, %9 ]
  %15 = getelementptr [1 x ptr], ptr %11, i64 0, i64 %.02141
  %16 = load ptr, ptr %15, align 8, !tbaa !24
  %17 = tail call i32 @PyErr_GivenExceptionMatches(ptr noundef %0, ptr noundef %16)
  %.not30 = icmp eq i32 %17, 0
  br i1 %.not30, label %13, label %.loopexit

18:                                               ; preds = %5
  %19 = getelementptr i8, ptr %0, i64 8
  %.val31 = load ptr, ptr %19, align 8, !tbaa !21
  %20 = getelementptr i8, ptr %.val31, i64 168
  %.val34 = load i64, ptr %20, align 8, !tbaa !28
  %21 = and i64 %.val34, 1073741824
  %.not25 = icmp eq i64 %21, 0
  %spec.select = select i1 %.not25, ptr %0, ptr %.val31
  %22 = getelementptr i8, ptr %spec.select, i64 8
  %.022.val37 = load ptr, ptr %22, align 8, !tbaa !21
  %23 = getelementptr i8, ptr %.022.val37, i64 168
  %.022.val37.val = load i64, ptr %23, align 8, !tbaa !28
  %24 = and i64 %.022.val37.val, 2147483648
  %.not38 = icmp eq i64 %24, 0
  br i1 %.not38, label %34, label %25

25:                                               ; preds = %18
  %26 = getelementptr i8, ptr %spec.select, i64 168
  %.022.val = load i64, ptr %26, align 8, !tbaa !28
  %27 = and i64 %.022.val, 1073741824
  %.not27 = icmp eq i64 %27, 0
  %28 = and i64 %.val35, 2147483648
  %.not39 = icmp eq i64 %28, 0
  %or.cond40 = or i1 %.not39, %.not27
  br i1 %or.cond40, label %34, label %29

29:                                               ; preds = %25
  %30 = getelementptr i8, ptr %1, i64 168
  %.val33 = load i64, ptr %30, align 8, !tbaa !28
  %31 = and i64 %.val33, 1073741824
  %.not29 = icmp eq i64 %31, 0
  br i1 %.not29, label %34, label %32

32:                                               ; preds = %29
  %33 = tail call i32 @PyType_IsSubtype(ptr noundef nonnull %spec.select, ptr noundef nonnull %1) #17
  br label %.loopexit

34:                                               ; preds = %29, %25, %18
  %35 = icmp eq ptr %spec.select, %1
  %36 = zext i1 %35 to i32
  br label %.loopexit

.loopexit:                                        ; preds = %13, %.lr.ph, %9, %2, %34, %32
  %.0 = phi i32 [ %33, %32 ], [ %36, %34 ], [ 0, %2 ], [ 0, %9 ], [ 0, %13 ], [ 1, %.lr.ph ]
  ret i32 %.0
}